; ModuleID = '55/151.c'
source_filename = "55/151.c"
target datalayout = "e-m:e-p270:32:32-p271:32:32-p272:64:64-i64:64-f80:128-n8:16:32:64-S128"
target triple = "x86_64-pc-linux-gnu"

@.str = private unnamed_addr constant [9 x i8] c"%d %s %d\00", align 1
@.str.1 = private unnamed_addr constant [3 x i8] c"%c\00", align 1
@.str.2 = private unnamed_addr constant [2 x i8] c"\0A\00", align 1

; Function Attrs: noinline nounwind uwtable
define dso_local i32 @main() #0 {
  %1 = alloca i32, align 4
  %2 = alloca i32, align 4
  %3 = alloca i32, align 4
  %4 = alloca i32, align 4
  %5 = alloca i32, align 4
  %6 = alloca i32, align 4
  %7 = alloca i32, align 4
  %8 = alloca i32, align 4
  %9 = alloca i32, align 4
  %10 = alloca [100 x i8], align 16
  %11 = alloca [100 x i8], align 16
  store i32 0, i32* %1, align 4
  store i32 0, i32* %6, align 4
  store i32 1, i32* %9, align 4
  %12 = getelementptr inbounds [100 x i8], [100 x i8]* %10, i64 0, i64 0
  %13 = call i32 (i8*, ...) @__isoc99_scanf(i8* getelementptr inbounds ([9 x i8], [9 x i8]* @.str, i64 0, i64 0), i32* %2, i8* %12, i32* %3)
  %14 = getelementptr inbounds [100 x i8], [100 x i8]* %10, i64 0, i64 0
  %15 = call i64 @strlen(i8* %14) #3
  %16 = trunc i64 %15 to i32
  store i32 %16, i32* %4, align 4
  %17 = load i32, i32* %4, align 4
  %18 = sub nsw i32 %17, 1
  store i32 %18, i32* %5, align 4
  br label %19

19:                                               ; preds = %103, %0
  %20 = load i32, i32* %5, align 4
  %21 = icmp sge i32 %20, 0
  br i1 %21, label %22, label %106

22:                                               ; preds = %19
  %23 = load i32, i32* %5, align 4
  %24 = sext i32 %23 to i64
  %25 = getelementptr inbounds [100 x i8], [100 x i8]* %10, i64 0, i64 %24
  %26 = load i8, i8* %25, align 1
  %27 = sext i8 %26 to i32
  %28 = icmp sge i32 %27, 65
  br i1 %28, label %29, label %47

29:                                               ; preds = %22
  %30 = load i32, i32* %5, align 4
  %31 = sext i32 %30 to i64
  %32 = getelementptr inbounds [100 x i8], [100 x i8]* %10, i64 0, i64 %31
  %33 = load i8, i8* %32, align 1
  %34 = sext i8 %33 to i32
  %35 = icmp sle i32 %34, 91
  br i1 %35, label %36, label %47

36:                                               ; preds = %29
  %37 = load i32, i32* %9, align 4
  %38 = load i32, i32* %5, align 4
  %39 = sext i32 %38 to i64
  %40 = getelementptr inbounds [100 x i8], [100 x i8]* %10, i64 0, i64 %39
  %41 = load i8, i8* %40, align 1
  %42 = sext i8 %41 to i32
  %43 = sub nsw i32 %42, 55
  %44 = mul nsw i32 %37, %43
  %45 = load i32, i32* %6, align 4
  %46 = add nsw i32 %45, %44
  store i32 %46, i32* %6, align 4
  br label %99

47:                                               ; preds = %29, %22
  %48 = load i32, i32* %5, align 4
  %49 = sext i32 %48 to i64
  %50 = getelementptr inbounds [100 x i8], [100 x i8]* %10, i64 0, i64 %49
  %51 = load i8, i8* %50, align 1
  %52 = sext i8 %51 to i32
  %53 = icmp sge i32 %52, 97
  br i1 %53, label %54, label %72

54:                                               ; preds = %47
  %55 = load i32, i32* %5, align 4
  %56 = sext i32 %55 to i64
  %57 = getelementptr inbounds [100 x i8], [100 x i8]* %10, i64 0, i64 %56
  %58 = load i8, i8* %57, align 1
  %59 = sext i8 %58 to i32
  %60 = icmp sle i32 %59, 123
  br i1 %60, label %61, label %72

61:                                               ; preds = %54
  %62 = load i32, i32* %9, align 4
  %63 = load i32, i32* %5, align 4
  %64 = sext i32 %63 to i64
  %65 = getelementptr inbounds [100 x i8], [100 x i8]* %10, i64 0, i64 %64
  %66 = load i8, i8* %65, align 1
  %67 = sext i8 %66 to i32
  %68 = sub nsw i32 %67, 87
  %69 = mul nsw i32 %62, %68
  %70 = load i32, i32* %6, align 4
  %71 = add nsw i32 %70, %69
  store i32 %71, i32* %6, align 4
  br label %98

72:                                               ; preds = %54, %47
  %73 = load i32, i32* %5, align 4
  %74 = sext i32 %73 to i64
  %75 = getelementptr inbounds [100 x i8], [100 x i8]* %10, i64 0, i64 %74
  %76 = load i8, i8* %75, align 1
  %77 = sext i8 %76 to i32
  %78 = icmp sge i32 %77, 48
  br i1 %78, label %79, label %97

79:                                               ; preds = %72
  %80 = load i32, i32* %5, align 4
  %81 = sext i32 %80 to i64
  %82 = getelementptr inbounds [100 x i8], [100 x i8]* %10, i64 0, i64 %81
  %83 = load i8, i8* %82, align 1
  %84 = sext i8 %83 to i32
  %85 = icmp sle i32 %84, 57
  br i1 %85, label %86, label %97

86:                                               ; preds = %79
  %87 = load i32, i32* %9, align 4
  %88 = load i32, i32* %5, align 4
  %89 = sext i32 %88 to i64
  %90 = getelementptr inbounds [100 x i8], [100 x i8]* %10, i64 0, i64 %89
  %91 = load i8, i8* %90, align 1
  %92 = sext i8 %91 to i32
  %93 = sub nsw i32 %92, 48
  %94 = mul nsw i32 %87, %93
  %95 = load i32, i32* %6, align 4
  %96 = add nsw i32 %95, %94
  store i32 %96, i32* %6, align 4
  br label %97

97:                                               ; preds = %86, %79, %72
  br label %98

98:                                               ; preds = %97, %61
  br label %99

99:                                               ; preds = %98, %36
  %100 = load i32, i32* %9, align 4
  %101 = load i32, i32* %2, align 4
  %102 = mul nsw i32 %100, %101
  store i32 %102, i32* %9, align 4
  br label %103

103:                                              ; preds = %99
  %104 = load i32, i32* %5, align 4
  %105 = add nsw i32 %104, -1
  store i32 %105, i32* %5, align 4
  br label %19

106:                                              ; preds = %19
  store i32 0, i32* %8, align 4
  br label %107

107:                                              ; preds = %146, %106
  %108 = load i32, i32* %6, align 4
  %109 = load i32, i32* %3, align 4
  %110 = srem i32 %108, %109
  store i32 %110, i32* %7, align 4
  %111 = load i32, i32* %6, align 4
  %112 = load i32, i32* %3, align 4
  %113 = sdiv i32 %111, %112
  store i32 %113, i32* %6, align 4
  %114 = load i32, i32* %7, align 4
  %115 = icmp sge i32 %114, 0
  br i1 %115, label %116, label %126

116:                                              ; preds = %107
  %117 = load i32, i32* %7, align 4
  %118 = icmp sle i32 %117, 9
  br i1 %118, label %119, label %126

119:                                              ; preds = %116
  %120 = load i32, i32* %7, align 4
  %121 = add nsw i32 %120, 48
  %122 = trunc i32 %121 to i8
  %123 = load i32, i32* %8, align 4
  %124 = sext i32 %123 to i64
  %125 = getelementptr inbounds [100 x i8], [100 x i8]* %11, i64 0, i64 %124
  store i8 %122, i8* %125, align 1
  br label %141

126:                                              ; preds = %116, %107
  %127 = load i32, i32* %7, align 4
  %128 = icmp sge i32 %127, 10
  br i1 %128, label %129, label %140

129:                                              ; preds = %126
  %130 = load i32, i32* %7, align 4
  %131 = icmp sle i32 %130, 35
  br i1 %131, label %132, label %140

132:                                              ; preds = %129
  %133 = load i32, i32* %7, align 4
  %134 = sub nsw i32 %133, 10
  %135 = add nsw i32 %134, 65
  %136 = trunc i32 %135 to i8
  %137 = load i32, i32* %8, align 4
  %138 = sext i32 %137 to i64
  %139 = getelementptr inbounds [100 x i8], [100 x i8]* %11, i64 0, i64 %138
  store i8 %136, i8* %139, align 1
  br label %140

140:                                              ; preds = %132, %129, %126
  br label %141

141:                                              ; preds = %140, %119
  %142 = load i32, i32* %6, align 4
  %143 = icmp eq i32 %142, 0
  br i1 %143, label %144, label %145

144:                                              ; preds = %141
  br label %149

145:                                              ; preds = %141
  br label %146

146:                                              ; preds = %145
  %147 = load i32, i32* %8, align 4
  %148 = add nsw i32 %147, 1
  store i32 %148, i32* %8, align 4
  br label %107

149:                                              ; preds = %144
  %150 = load i32, i32* %8, align 4
  store i32 %150, i32* %5, align 4
  br label %151

151:                                              ; preds = %161, %149
  %152 = load i32, i32* %5, align 4
  %153 = icmp sge i32 %152, 0
  br i1 %153, label %154, label %164

154:                                              ; preds = %151
  %155 = load i32, i32* %5, align 4
  %156 = sext i32 %155 to i64
  %157 = getelementptr inbounds [100 x i8], [100 x i8]* %11, i64 0, i64 %156
  %158 = load i8, i8* %157, align 1
  %159 = sext i8 %158 to i32
  %160 = call i32 (i8*, ...) @printf(i8* getelementptr inbounds ([3 x i8], [3 x i8]* @.str.1, i64 0, i64 0), i32 %159)
  br label %161

161:                                              ; preds = %154
  %162 = load i32, i32* %5, align 4
  %163 = add nsw i32 %162, -1
  store i32 %163, i32* %5, align 4
  br label %151

164:                                              ; preds = %151
  %165 = call i32 (i8*, ...) @printf(i8* getelementptr inbounds ([2 x i8], [2 x i8]* @.str.2, i64 0, i64 0))
  ret i32 0
}

declare dso_local i32 @__isoc99_scanf(i8*, ...) #1

; Function Attrs: nounwind readonly
declare dso_local i64 @strlen(i8*) #2

declare dso_local i32 @printf(i8*, ...) #1


!llvm.module.flags = !{!0}
!llvm.ident = !{!1}

!0 = !{i32 1, !"wchar_size", i32 4}
!1 = !{!"clang version 10.0.0-4ubuntu1 "}
